; Function Attrs: nounwind uwtable
define dso_local range(i32 0, 5) i32 @has_symlink_leading_path(ptr noundef readonly captures(none) %0, i32 noundef %1) local_unnamed_addr #0 {
  %3 = alloca i32, align 4
  call void @llvm.lifetime.start.p0(i64 4, ptr nonnull %3) #11
  %4 = call fastcc i32 @lstat_cache_matchlen(ptr noundef nonnull @default_cache, ptr noundef readonly %0, i32 noundef %1, ptr noundef %3, i32 noundef 5, i32 noundef 0)
  %5 = load i32, ptr %3, align 4, !tbaa !4
  call void @llvm.lifetime.end.p0(i64 4, ptr nonnull %3) #11
  %6 = and i32 %5, 4
  ret i32 %6
}